target datalayout = "e-m:e-p270:32:32-p271:32:32-p272:64:64-i64:64-i128:128-f80:128-n8:16:32:64-S128"
target triple = "x86_64-pc-linux-gnu"

%struct.JNINativeInterface_ = type { ptr, ptr, ptr, ptr, ptr, ptr, ptr, ptr, ptr, ptr, ptr, ptr, ptr, ptr, ptr, ptr, ptr, ptr, ptr, ptr, ptr, ptr, ptr, ptr, ptr, ptr, ptr, ptr, ptr, ptr, ptr, ptr, ptr, ptr, ptr, ptr, ptr, ptr, ptr, ptr, ptr, ptr, ptr, ptr, ptr, ptr, ptr, ptr, ptr, ptr, ptr, ptr, ptr, ptr, ptr, ptr, ptr, ptr, ptr, ptr, ptr, ptr, ptr, ptr, ptr, ptr, ptr, ptr, ptr, ptr, ptr, ptr, ptr, ptr, ptr, ptr, ptr, ptr, ptr, ptr, ptr, ptr, ptr, ptr, ptr, ptr, ptr, ptr, ptr, ptr, ptr, ptr, ptr, ptr, ptr, ptr, ptr, ptr, ptr, ptr, ptr, ptr, ptr, ptr, ptr, ptr, ptr, ptr, ptr, ptr, ptr, ptr, ptr, ptr, ptr, ptr, ptr, ptr, ptr, ptr, ptr, ptr, ptr, ptr, ptr, ptr, ptr, ptr, ptr, ptr, ptr, ptr, ptr, ptr, ptr, ptr, ptr, ptr, ptr, ptr, ptr, ptr, ptr, ptr, ptr, ptr, ptr, ptr, ptr, ptr, ptr, ptr, ptr, ptr, ptr, ptr, ptr, ptr, ptr, ptr, ptr, ptr, ptr, ptr, ptr, ptr, ptr, ptr, ptr, ptr, ptr, ptr, ptr, ptr, ptr, ptr, ptr, ptr, ptr, ptr, ptr, ptr, ptr, ptr, ptr, ptr, ptr, ptr, ptr, ptr, ptr, ptr, ptr, ptr, ptr, ptr, ptr, ptr, ptr, ptr, ptr, ptr, ptr, ptr, ptr, ptr, ptr, ptr, ptr, ptr, ptr, ptr, ptr, ptr, ptr, ptr, ptr, ptr, ptr, ptr, ptr, ptr, ptr, ptr, ptr, ptr, ptr, ptr, ptr, ptr, ptr, ptr, ptr, ptr, ptr }

@fd_fdID = internal global ptr null, align 8
@.str.4 = private unnamed_addr constant [26 x i8] c"Configure blocking failed\00", align 1

; Function Attrs: nounwind uwtable
define internal i32 @configureBlocking(i32 noundef %0, i8 noundef zeroext %1) #0 {
  %3 = alloca i32, align 4
  %4 = alloca i8, align 1
  %5 = alloca i32, align 4
  %6 = alloca i32, align 4
  store i32 %0, ptr %3, align 4
  store i8 %1, ptr %4, align 1
  %7 = load i32, ptr %3, align 4
  %8 = call i32 (i32, i32, ...) @fcntl64(i32 noundef %7, i32 noundef 3)
  store i32 %8, ptr %5, align 4
  %9 = load i8, ptr %4, align 1
  %10 = zext i8 %9 to i32
  %11 = icmp ne i32 %10, 0
  br i1 %11, label %12, label %15

12:                                               ; preds = %2
  %13 = load i32, ptr %5, align 4
  %14 = and i32 %13, -2049
  br label %18

15:                                               ; preds = %2
  %16 = load i32, ptr %5, align 4
  %17 = or i32 %16, 2048
  br label %18

18:                                               ; preds = %15, %12
  %19 = phi i32 [ %14, %12 ], [ %17, %15 ]
  store i32 %19, ptr %6, align 4
  %20 = load i32, ptr %5, align 4
  %21 = load i32, ptr %6, align 4
  %22 = icmp eq i32 %20, %21
  br i1 %22, label %23, label %24

23:                                               ; preds = %18
  br label %28

24:                                               ; preds = %18
  %25 = load i32, ptr %3, align 4
  %26 = load i32, ptr %6, align 4
  %27 = call i32 (i32, i32, ...) @fcntl64(i32 noundef %25, i32 noundef 4, i32 noundef %26)
  br label %28

28:                                               ; preds = %24, %23
  %29 = phi i32 [ 0, %23 ], [ %27, %24 ]
  ret i32 %29
}

; Function Attrs: nounwind uwtable
define hidden i32 @fdval(ptr noundef %0, ptr noundef %1) #0 {
  %3 = alloca ptr, align 8
  %4 = alloca ptr, align 8
  store ptr %0, ptr %3, align 8
  store ptr %1, ptr %4, align 8
  %5 = load ptr, ptr %3, align 8
  %6 = load ptr, ptr %5, align 8
  %7 = getelementptr inbounds %struct.JNINativeInterface_, ptr %6, i32 0, i32 100
  %8 = load ptr, ptr %7, align 8
  %9 = load ptr, ptr %3, align 8
  %10 = load ptr, ptr %4, align 8
  %11 = load ptr, ptr @fd_fdID, align 8
  %12 = call i32 %8(ptr noundef %9, ptr noundef %10, ptr noundef %11)
  ret i32 %12
}

; Function Attrs: nounwind uwtable
define void @Java_sun_nio_ch_IOUtil_configureBlocking(ptr noundef %0, ptr noundef %1, ptr noundef %2, i8 noundef zeroext %3) #0 {
  %5 = alloca ptr, align 8
  %6 = alloca ptr, align 8
  %7 = alloca ptr, align 8
  %8 = alloca i8, align 1
  store ptr %0, ptr %5, align 8
  store ptr %1, ptr %6, align 8
  store ptr %2, ptr %7, align 8
  store i8 %3, ptr %8, align 1
  %9 = load ptr, ptr %5, align 8
  %10 = load ptr, ptr %7, align 8
  %11 = call i32 @fdval(ptr noundef %9, ptr noundef %10)
  %12 = load i8, ptr %8, align 1
  %13 = call i32 @configureBlocking(i32 noundef %11, i8 noundef zeroext %12)
  %14 = icmp slt i32 %13, 0
  br i1 %14, label %15, label %17

15:                                               ; preds = %4
  %16 = load ptr, ptr %5, align 8
  call void @JNU_ThrowIOExceptionWithLastError(ptr noundef %16, ptr noundef @.str.4)
  br label %17

17:                                               ; preds = %15, %4
  ret void
}