; Function Attrs: nounwind uwtable
define void @Java_sun_nio_ch_IOUtil_configureBlocking(ptr noundef %0, ptr nocapture noundef readnone %1, ptr noundef %2, i8 noundef zeroext %3) local_unnamed_addr #0 {
  %5 = load ptr, ptr %0, align 8
  %6 = getelementptr inbounds i8, ptr %5, i64 800
  %7 = load ptr, ptr %6, align 8
  %8 = load ptr, ptr @fd_fdID, align 8
  %9 = tail call i32 %7(ptr noundef nonnull %0, ptr noundef %2, ptr noundef %8) #7
  %10 = tail call i32 (i32, i32, ...) @fcntl64(i32 noundef %9, i32 noundef 3) #7
  %.not.i = icmp eq i8 %3, 0
  %11 = and i32 %10, -2049
  %masksel.i = select i1 %.not.i, i32 2048, i32 0
  %12 = or disjoint i32 %11, %masksel.i
  %13 = icmp eq i32 %10, %12
  br i1 %13, label %configureBlocking.exit.thread, label %configureBlocking.exit

configureBlocking.exit:                           ; preds = %4
  %14 = tail call i32 (i32, i32, ...) @fcntl64(i32 noundef %9, i32 noundef 4, i32 noundef %12) #7
  %15 = icmp slt i32 %14, 0
  br i1 %15, label %16, label %configureBlocking.exit.thread

16:                                               ; preds = %configureBlocking.exit
  tail call void @JNU_ThrowIOExceptionWithLastError(ptr noundef nonnull %0, ptr noundef nonnull @.str.4) #7
  br label %configureBlocking.exit.thread

configureBlocking.exit.thread:                    ; preds = %4, %16, %configureBlocking.exit
  ret void
}